target datalayout = "e-m:e-p270:32:32-p271:32:32-p272:64:64-i64:64-i128:128-f80:128-n8:16:32:64-S128"
target triple = "x86_64-pc-linux-gnu"

%"class.std::__cxx11::basic_string" = type { %"struct.std::__cxx11::basic_string<char>::_Alloc_hider", i64, %union.anon }
%"struct.std::__cxx11::basic_string<char>::_Alloc_hider" = type { ptr }
%union.anon = type { i64, [8 x i8] }
%"struct.rocksdb::WriteBatchWithIndex::Rep" = type { %"class.rocksdb::ReadableWriteBatch", %"class.rocksdb::WriteBatchEntryComparator", [8 x i8], %"class.rocksdb::Arena", %"class.rocksdb::SkipList", i64, i64, i8, i8, %"class.std::unordered_map.34", [8 x i8] }
%"class.rocksdb::ReadableWriteBatch" = type { %"class.rocksdb::WriteBatch" }
%"class.rocksdb::WriteBatch" = type { %"class.rocksdb::WriteBatchBase", %"class.std::unique_ptr", %"struct.rocksdb::SavePoint", i8, i8, i8, %"struct.std::atomic", i64, %"class.std::unique_ptr.5", i64, i8, %"class.std::unordered_map", %"class.std::__cxx11::basic_string" }
%"class.rocksdb::WriteBatchBase" = type { ptr }
%"class.std::unique_ptr" = type { %"struct.std::__uniq_ptr_data" }
%"struct.std::__uniq_ptr_data" = type { %"class.std::__uniq_ptr_impl" }
%"class.std::__uniq_ptr_impl" = type { %"class.std::tuple" }
%"class.std::tuple" = type { %"struct.std::_Tuple_impl" }
%"struct.std::_Tuple_impl" = type { %"struct.std::_Head_base.4" }
%"struct.std::_Head_base.4" = type { ptr }
%"struct.rocksdb::SavePoint" = type { i64, i32, i32 }
%"struct.std::atomic" = type { %"struct.std::__atomic_base" }
%"struct.std::__atomic_base" = type { i32 }
%"class.std::unique_ptr.5" = type { %"struct.std::__uniq_ptr_data.6" }
%"struct.std::__uniq_ptr_data.6" = type { %"class.std::__uniq_ptr_impl.7" }
%"class.std::__uniq_ptr_impl.7" = type { %"class.std::tuple.8" }
%"class.std::tuple.8" = type { %"struct.std::_Tuple_impl.9" }
%"struct.std::_Tuple_impl.9" = type { %"struct.std::_Head_base.12" }
%"struct.std::_Head_base.12" = type { ptr }
%"class.std::unordered_map" = type { %"class.std::_Hashtable" }
%"class.std::_Hashtable" = type { ptr, i64, %"struct.std::__detail::_Hash_node_base", i64, %"struct.std::__detail::_Prime_rehash_policy", ptr }
%"struct.std::__detail::_Hash_node_base" = type { ptr }
%"struct.std::__detail::_Prime_rehash_policy" = type { float, i64 }
%"class.rocksdb::WriteBatchEntryComparator" = type { ptr, %"class.std::vector.18", ptr }
%"class.std::vector.18" = type { %"struct.std::_Vector_base.19" }
%"struct.std::_Vector_base.19" = type { %"struct.std::_Vector_base<const rocksdb::Comparator *, std::allocator<const rocksdb::Comparator *>>::_Vector_impl" }
%"struct.std::_Vector_base<const rocksdb::Comparator *, std::allocator<const rocksdb::Comparator *>>::_Vector_impl" = type { %"struct.std::_Vector_base<const rocksdb::Comparator *, std::allocator<const rocksdb::Comparator *>>::_Vector_impl_data" }
%"struct.std::_Vector_base<const rocksdb::Comparator *, std::allocator<const rocksdb::Comparator *>>::_Vector_impl_data" = type { ptr, ptr, ptr }
%"class.rocksdb::Arena" = type { %"class.rocksdb::Allocator", [8 x i8], [2048 x i8], i64, %"class.std::deque", %"class.std::deque.26", i64, ptr, ptr, i64, i64, i64, ptr }
%"class.rocksdb::Allocator" = type { ptr }
%"class.std::deque" = type { %"class.std::_Deque_base" }
%"class.std::_Deque_base" = type { %"struct.std::_Deque_base<std::unique_ptr<char[]>, std::allocator<std::unique_ptr<char[]>>>::_Deque_impl" }
%"struct.std::_Deque_base<std::unique_ptr<char[]>, std::allocator<std::unique_ptr<char[]>>>::_Deque_impl" = type { %"struct.std::_Deque_base<std::unique_ptr<char[]>, std::allocator<std::unique_ptr<char[]>>>::_Deque_impl_data" }
%"struct.std::_Deque_base<std::unique_ptr<char[]>, std::allocator<std::unique_ptr<char[]>>>::_Deque_impl_data" = type { ptr, i64, %"struct.std::_Deque_iterator", %"struct.std::_Deque_iterator" }
%"struct.std::_Deque_iterator" = type { ptr, ptr, ptr, ptr }
%"class.std::deque.26" = type { %"class.std::_Deque_base.27" }
%"class.std::_Deque_base.27" = type { %"struct.std::_Deque_base<rocksdb::MemMapping, std::allocator<rocksdb::MemMapping>>::_Deque_impl" }
%"struct.std::_Deque_base<rocksdb::MemMapping, std::allocator<rocksdb::MemMapping>>::_Deque_impl" = type { %"struct.std::_Deque_base<rocksdb::MemMapping, std::allocator<rocksdb::MemMapping>>::_Deque_impl_data" }
%"struct.std::_Deque_base<rocksdb::MemMapping, std::allocator<rocksdb::MemMapping>>::_Deque_impl_data" = type { ptr, i64, %"struct.std::_Deque_iterator.31", %"struct.std::_Deque_iterator.31" }
%"struct.std::_Deque_iterator.31" = type { ptr, ptr, ptr, ptr }
%"class.rocksdb::SkipList" = type <{ i16, i16, i32, ptr, ptr, ptr, %"struct.std::atomic.32", [4 x i8], ptr, i32, [4 x i8] }>
%"struct.std::atomic.32" = type { %"struct.std::__atomic_base.33" }
%"struct.std::__atomic_base.33" = type { i32 }
%"class.std::unordered_map.34" = type { %"class.std::_Hashtable.35" }
%"class.std::_Hashtable.35" = type { ptr, i64, %"struct.std::__detail::_Hash_node_base", i64, %"struct.std::__detail::_Prime_rehash_policy", ptr }
%"struct.rocksdb::SkipList<rocksdb::WriteBatchIndexEntry *, const rocksdb::WriteBatchEntryComparator &>::Node" = type { ptr, [1 x %"struct.std::atomic.447"] }
%"struct.std::atomic.447" = type { %"struct.std::__atomic_base.448" }
%"struct.std::__atomic_base.448" = type { ptr }

; Function Attrs: mustprogress nounwind uwtable
define linkonce_odr noundef i32 @_ZStanSt12memory_orderSt23__memory_order_modifier(i32 noundef %0, i32 noundef %1) #3 comdat {
  %3 = alloca i32, align 4
  %4 = alloca i32, align 4
  store i32 %0, ptr %3, align 4, !tbaa !493
  store i32 %1, ptr %4, align 4, !tbaa !495
  %5 = load i32, ptr %3, align 4, !tbaa !493
  %6 = load i32, ptr %4, align 4, !tbaa !495
  %7 = and i32 %5, %6
  ret i32 %7
}

; Function Attrs: alwaysinline mustprogress nounwind uwtable
define linkonce_odr void @_ZNSt13__atomic_baseIPN7rocksdb8SkipListIPNS0_20WriteBatchIndexEntryERKNS0_25WriteBatchEntryComparatorEE4NodeEE5storeES9_St12memory_order(ptr noundef nonnull align 8 dereferenceable(8) %0, ptr noundef %1, i32 noundef %2) #14 comdat align 2 {
  %4 = alloca ptr, align 8
  %5 = alloca ptr, align 8
  %6 = alloca i32, align 4
  %7 = alloca i32, align 4
  %8 = alloca ptr, align 8
  store ptr %0, ptr %4, align 8, !tbaa !499
  store ptr %1, ptr %5, align 8, !tbaa !189
  store i32 %2, ptr %6, align 4, !tbaa !493
  %9 = load ptr, ptr %4, align 8
  call void @llvm.lifetime.start.p0(i64 4, ptr %7) #4
  %10 = load i32, ptr %6, align 4, !tbaa !493
  %11 = call noundef i32 @_ZStanSt12memory_orderSt23__memory_order_modifier(i32 noundef %10, i32 noundef 65535)
  store i32 %11, ptr %7, align 4, !tbaa !493
  br label %12

12:                                               ; preds = %3
  br label %13

13:                                               ; preds = %12
  br label %14

14:                                               ; preds = %13
  br label %15

15:                                               ; preds = %14
  br label %16

16:                                               ; preds = %15
  br label %17

17:                                               ; preds = %16
  br label %18

18:                                               ; preds = %17
  br label %19

19:                                               ; preds = %18
  br label %20

20:                                               ; preds = %19
  %21 = getelementptr inbounds nuw %"struct.std::__atomic_base.448", ptr %9, i32 0, i32 0
  %22 = load i32, ptr %6, align 4, !tbaa !493
  %23 = load ptr, ptr %5, align 8, !tbaa !189
  store ptr %23, ptr %8, align 8, !tbaa !189
  switch i32 %22, label %24 [
    i32 3, label %26
    i32 5, label %28
  ]

24:                                               ; preds = %20
  %25 = load i64, ptr %8, align 8
  store atomic i64 %25, ptr %21 monotonic, align 8
  br label %30

26:                                               ; preds = %20
  %27 = load i64, ptr %8, align 8
  store atomic i64 %27, ptr %21 release, align 8
  br label %30

28:                                               ; preds = %20
  %29 = load i64, ptr %8, align 8
  store atomic i64 %29, ptr %21 seq_cst, align 8
  br label %30

30:                                               ; preds = %28, %26, %24
  call void @llvm.lifetime.end.p0(i64 4, ptr %7) #4
  ret void
}

; Function Attrs: mustprogress nounwind uwtable
define linkonce_odr void @_ZNSt6atomicIPN7rocksdb8SkipListIPNS0_20WriteBatchIndexEntryERKNS0_25WriteBatchEntryComparatorEE4NodeEE5storeES9_St12memory_order(ptr noundef nonnull align 8 dereferenceable(8) %0, ptr noundef %1, i32 noundef %2) #3 comdat align 2 {
  %4 = alloca ptr, align 8
  %5 = alloca ptr, align 8
  %6 = alloca i32, align 4
  store ptr %0, ptr %4, align 8, !tbaa !497
  store ptr %1, ptr %5, align 8, !tbaa !189
  store i32 %2, ptr %6, align 4, !tbaa !493
  %7 = load ptr, ptr %4, align 8
  %8 = getelementptr inbounds nuw %"struct.std::atomic.447", ptr %7, i32 0, i32 0
  %9 = load ptr, ptr %5, align 8, !tbaa !189
  %10 = load i32, ptr %6, align 4, !tbaa !493
  call void @_ZNSt13__atomic_baseIPN7rocksdb8SkipListIPNS0_20WriteBatchIndexEntryERKNS0_25WriteBatchEntryComparatorEE4NodeEE5storeES9_St12memory_order(ptr noundef nonnull align 8 dereferenceable(8) %8, ptr noundef %9, i32 noundef %10) #4
  ret void
}

; Function Attrs: mustprogress nounwind uwtable
define linkonce_odr void @_ZNSt13__atomic_baseIiEC2Ei(ptr noundef nonnull align 4 dereferenceable(4) %0, i32 noundef %1) unnamed_addr #3 comdat align 2 {
  %3 = alloca ptr, align 8
  %4 = alloca i32, align 4
  store ptr %0, ptr %3, align 8, !tbaa !491
  store i32 %1, ptr %4, align 4, !tbaa !54
  %5 = load ptr, ptr %3, align 8
  %6 = getelementptr inbounds nuw %"struct.std::__atomic_base.33", ptr %5, i32 0, i32 0
  %7 = load i32, ptr %4, align 4, !tbaa !54
  store i32 %7, ptr %6, align 4, !tbaa !751
  ret void
}

; Function Attrs: mustprogress nounwind uwtable
define linkonce_odr void @_ZN7rocksdb8SkipListIPNS_20WriteBatchIndexEntryERKNS_25WriteBatchEntryComparatorEE4NodeC2ERKS2_(ptr noundef nonnull align 8 dereferenceable(16) %0, ptr noundef nonnull align 8 dereferenceable(8) %1) unnamed_addr #3 comdat align 2 {
  %3 = alloca ptr, align 8
  %4 = alloca ptr, align 8
  store ptr %0, ptr %3, align 8, !tbaa !189
  store ptr %1, ptr %4, align 8, !tbaa !186
  %5 = load ptr, ptr %3, align 8
  %6 = getelementptr inbounds nuw %"struct.rocksdb::SkipList<rocksdb::WriteBatchIndexEntry *, const rocksdb::WriteBatchEntryComparator &>::Node", ptr %5, i32 0, i32 0
  %7 = load ptr, ptr %4, align 8, !tbaa !186
  %8 = load ptr, ptr %7, align 8, !tbaa !127
  store ptr %8, ptr %6, align 8, !tbaa !488
  ret void
}

; Function Attrs: mustprogress nounwind uwtable
define linkonce_odr void @_ZN7rocksdb8SkipListIPNS_20WriteBatchIndexEntryERKNS_25WriteBatchEntryComparatorEE4Node7SetNextEiPS7_(ptr noundef nonnull align 8 dereferenceable(16) %0, i32 noundef %1, ptr noundef %2) #3 comdat align 2 {
  %4 = alloca ptr, align 8
  %5 = alloca i32, align 4
  %6 = alloca ptr, align 8
  store ptr %0, ptr %4, align 8, !tbaa !189
  store i32 %1, ptr %5, align 4, !tbaa !54
  store ptr %2, ptr %6, align 8, !tbaa !189
  %7 = load ptr, ptr %4, align 8
  %8 = getelementptr inbounds nuw %"struct.rocksdb::SkipList<rocksdb::WriteBatchIndexEntry *, const rocksdb::WriteBatchEntryComparator &>::Node", ptr %7, i32 0, i32 1
  %9 = load i32, ptr %5, align 4, !tbaa !54
  %10 = sext i32 %9 to i64
  %11 = getelementptr inbounds [1 x %"struct.std::atomic.447"], ptr %8, i64 0, i64 %10
  %12 = load ptr, ptr %6, align 8, !tbaa !189
  call void @_ZNSt6atomicIPN7rocksdb8SkipListIPNS0_20WriteBatchIndexEntryERKNS0_25WriteBatchEntryComparatorEE4NodeEE5storeES9_St12memory_order(ptr noundef nonnull align 8 dereferenceable(8) %11, ptr noundef %12, i32 noundef 3) #4
  ret void
}

; Function Attrs: mustprogress nounwind uwtable
define linkonce_odr void @_ZNSt6atomicIiEC2Ei(ptr noundef nonnull align 4 dereferenceable(4) %0, i32 noundef %1) unnamed_addr #3 comdat align 2 {
  %3 = alloca ptr, align 8
  %4 = alloca i32, align 4
  store ptr %0, ptr %3, align 8, !tbaa !749
  store i32 %1, ptr %4, align 4, !tbaa !54
  %5 = load ptr, ptr %3, align 8
  %6 = load i32, ptr %4, align 4, !tbaa !54
  call void @_ZNSt13__atomic_baseIiEC2Ei(ptr noundef nonnull align 4 dereferenceable(4) %5, i32 noundef %6) #4
  ret void
}

; Function Attrs: mustprogress uwtable
define linkonce_odr noundef ptr @_ZN7rocksdb8SkipListIPNS_20WriteBatchIndexEntryERKNS_25WriteBatchEntryComparatorEE7NewNodeERKS2_i(ptr noundef nonnull align 8 dereferenceable(52) %0, ptr noundef nonnull align 8 dereferenceable(8) %1, i32 noundef %2) #5 comdat align 2 {
  %4 = alloca ptr, align 8
  %5 = alloca ptr, align 8
  %6 = alloca i32, align 4
  %7 = alloca ptr, align 8
  store ptr %0, ptr %4, align 8, !tbaa !143
  store ptr %1, ptr %5, align 8, !tbaa !186
  store i32 %2, ptr %6, align 4, !tbaa !54
  %8 = load ptr, ptr %4, align 8
  call void @llvm.lifetime.start.p0(i64 8, ptr %7) #4
  %9 = getelementptr inbounds nuw %"class.rocksdb::SkipList", ptr %8, i32 0, i32 4
  %10 = load ptr, ptr %9, align 8, !tbaa !200
  %11 = load i32, ptr %6, align 4, !tbaa !54
  %12 = sub nsw i32 %11, 1
  %13 = sext i32 %12 to i64
  %14 = mul i64 8, %13
  %15 = add i64 16, %14
  %16 = load ptr, ptr %10, align 8, !tbaa !147
  %17 = getelementptr inbounds ptr, ptr %16, i64 3
  %18 = load ptr, ptr %17, align 8
  %19 = call noundef ptr %18(ptr noundef nonnull align 8 dereferenceable(8) %10, i64 noundef %15, i64 noundef 0, ptr noundef null)
  store ptr %19, ptr %7, align 8, !tbaa !31
  %20 = load ptr, ptr %7, align 8, !tbaa !31
  %21 = load ptr, ptr %5, align 8, !tbaa !186
  call void @_ZN7rocksdb8SkipListIPNS_20WriteBatchIndexEntryERKNS_25WriteBatchEntryComparatorEE4NodeC2ERKS2_(ptr noundef nonnull align 8 dereferenceable(16) %20, ptr noundef nonnull align 8 dereferenceable(8) %21)
  call void @llvm.lifetime.end.p0(i64 8, ptr %7) #4
  ret ptr %20
}

; Function Attrs: mustprogress uwtable
define linkonce_odr void @_ZN7rocksdb8SkipListIPNS_20WriteBatchIndexEntryERKNS_25WriteBatchEntryComparatorEEC2ES5_PNS_9AllocatorEii(ptr noundef nonnull align 8 dereferenceable(52) %0, ptr noundef nonnull align 8 dereferenceable(40) %1, ptr noundef %2, i32 noundef %3, i32 noundef %4) unnamed_addr #5 comdat align 2 {
  %6 = alloca ptr, align 8
  %7 = alloca ptr, align 8
  %8 = alloca ptr, align 8
  %9 = alloca i32, align 4
  %10 = alloca i32, align 4
  %11 = alloca ptr, align 8
  %12 = alloca i32, align 4
  store ptr %0, ptr %6, align 8, !tbaa !143
  store ptr %1, ptr %7, align 8, !tbaa !146
  store ptr %2, ptr %8, align 8, !tbaa !196
  store i32 %3, ptr %9, align 4, !tbaa !54
  store i32 %4, ptr %10, align 4, !tbaa !54
  %13 = load ptr, ptr %6, align 8
  %14 = getelementptr inbounds nuw %"class.rocksdb::SkipList", ptr %13, i32 0, i32 0
  %15 = load i32, ptr %9, align 4, !tbaa !54
  %16 = trunc i32 %15 to i16
  store i16 %16, ptr %14, align 8, !tbaa !197
  %17 = getelementptr inbounds nuw %"class.rocksdb::SkipList", ptr %13, i32 0, i32 1
  %18 = load i32, ptr %10, align 4, !tbaa !54
  %19 = trunc i32 %18 to i16
  store i16 %19, ptr %17, align 2, !tbaa !198
  %20 = getelementptr inbounds nuw %"class.rocksdb::SkipList", ptr %13, i32 0, i32 2
  %21 = getelementptr inbounds nuw %"class.rocksdb::SkipList", ptr %13, i32 0, i32 1
  %22 = load i16, ptr %21, align 2, !tbaa !198
  %23 = zext i16 %22 to i32
  %24 = udiv i32 -2147483648, %23
  store i32 %24, ptr %20, align 4, !tbaa !199
  %25 = getelementptr inbounds nuw %"class.rocksdb::SkipList", ptr %13, i32 0, i32 3
  %26 = load ptr, ptr %7, align 8, !tbaa !146
  store ptr %26, ptr %25, align 8, !tbaa !146
  %27 = getelementptr inbounds nuw %"class.rocksdb::SkipList", ptr %13, i32 0, i32 4
  %28 = load ptr, ptr %8, align 8, !tbaa !196
  store ptr %28, ptr %27, align 8, !tbaa !200
  %29 = getelementptr inbounds nuw %"class.rocksdb::SkipList", ptr %13, i32 0, i32 5
  call void @llvm.lifetime.start.p0(i64 8, ptr %11) #4
  store ptr null, ptr %11, align 8, !tbaa !127
  %30 = load i32, ptr %9, align 4, !tbaa !54
  %31 = call noundef ptr @_ZN7rocksdb8SkipListIPNS_20WriteBatchIndexEntryERKNS_25WriteBatchEntryComparatorEE7NewNodeERKS2_i(ptr noundef nonnull align 8 dereferenceable(52) %13, ptr noundef nonnull align 8 dereferenceable(8) %11, i32 noundef %30)
  call void @llvm.lifetime.end.p0(i64 8, ptr %11) #4
  store ptr %31, ptr %29, align 8, !tbaa !190
  %32 = getelementptr inbounds nuw %"class.rocksdb::SkipList", ptr %13, i32 0, i32 6
  call void @_ZNSt6atomicIiEC2Ei(ptr noundef nonnull align 4 dereferenceable(4) %32, i32 noundef 1) #4
  %33 = getelementptr inbounds nuw %"class.rocksdb::SkipList", ptr %13, i32 0, i32 9
  store i32 1, ptr %33, align 8, !tbaa !191
  %34 = getelementptr inbounds nuw %"class.rocksdb::SkipList", ptr %13, i32 0, i32 4
  %35 = load ptr, ptr %34, align 8, !tbaa !200
  %36 = getelementptr inbounds nuw %"class.rocksdb::SkipList", ptr %13, i32 0, i32 0
  %37 = load i16, ptr %36, align 8, !tbaa !197
  %38 = zext i16 %37 to i64
  %39 = mul i64 8, %38
  %40 = load ptr, ptr %35, align 8, !tbaa !147
  %41 = getelementptr inbounds ptr, ptr %40, i64 3
  %42 = load ptr, ptr %41, align 8
  %43 = call noundef ptr %42(ptr noundef nonnull align 8 dereferenceable(8) %35, i64 noundef %39, i64 noundef 0, ptr noundef null)
  %44 = getelementptr inbounds nuw %"class.rocksdb::SkipList", ptr %13, i32 0, i32 8
  store ptr %43, ptr %44, align 8, !tbaa !188
  call void @llvm.lifetime.start.p0(i64 4, ptr %12) #4
  store i32 0, ptr %12, align 4, !tbaa !54
  br label %45

45:                                               ; preds = %63, %5
  %46 = load i32, ptr %12, align 4, !tbaa !54
  %47 = getelementptr inbounds nuw %"class.rocksdb::SkipList", ptr %13, i32 0, i32 0
  %48 = load i16, ptr %47, align 8, !tbaa !197
  %49 = zext i16 %48 to i32
  %50 = icmp slt i32 %46, %49
  br i1 %50, label %52, label %51

51:                                               ; preds = %45
  call void @llvm.lifetime.end.p0(i64 4, ptr %12) #4
  br label %66

52:                                               ; preds = %45
  %53 = getelementptr inbounds nuw %"class.rocksdb::SkipList", ptr %13, i32 0, i32 5
  %54 = load ptr, ptr %53, align 8, !tbaa !190
  %55 = load i32, ptr %12, align 4, !tbaa !54
  call void @_ZN7rocksdb8SkipListIPNS_20WriteBatchIndexEntryERKNS_25WriteBatchEntryComparatorEE4Node7SetNextEiPS7_(ptr noundef nonnull align 8 dereferenceable(16) %54, i32 noundef %55, ptr noundef null)
  %56 = getelementptr inbounds nuw %"class.rocksdb::SkipList", ptr %13, i32 0, i32 5
  %57 = load ptr, ptr %56, align 8, !tbaa !190
  %58 = getelementptr inbounds nuw %"class.rocksdb::SkipList", ptr %13, i32 0, i32 8
  %59 = load ptr, ptr %58, align 8, !tbaa !188
  %60 = load i32, ptr %12, align 4, !tbaa !54
  %61 = sext i32 %60 to i64
  %62 = getelementptr inbounds ptr, ptr %59, i64 %61
  store ptr %57, ptr %62, align 8, !tbaa !189
  br label %63

63:                                               ; preds = %52
  %64 = load i32, ptr %12, align 4, !tbaa !54
  %65 = add nsw i32 %64, 1
  store i32 %65, ptr %12, align 4, !tbaa !54
  br label %45, !llvm.loop !201

66:                                               ; preds = %51
  ret void
}

; Function Attrs: mustprogress uwtable
define void @_ZN7rocksdb19WriteBatchWithIndex3Rep10ClearIndexEv(ptr noundef nonnull align 16 dereferenceable(2632) %0) #5 align 2 {
  %2 = alloca ptr, align 8
  store ptr %0, ptr %2, align 8, !tbaa !52
  %3 = load ptr, ptr %2, align 8
  %4 = getelementptr inbounds nuw %"struct.rocksdb::WriteBatchWithIndex::Rep", ptr %3, i32 0, i32 3
  call void @_ZN7rocksdb5ArenaD1Ev(ptr noundef nonnull align 16 dereferenceable(2288) %4) #4
  %5 = getelementptr inbounds nuw %"struct.rocksdb::WriteBatchWithIndex::Rep", ptr %3, i32 0, i32 3
  call void @_ZN7rocksdb5ArenaC1EmPNS_12AllocTrackerEm(ptr noundef nonnull align 16 dereferenceable(2288) %5, i64 noundef 4096, ptr noundef null, i64 noundef 0)
  %6 = getelementptr inbounds nuw %"struct.rocksdb::WriteBatchWithIndex::Rep", ptr %3, i32 0, i32 4
  %7 = getelementptr inbounds nuw %"struct.rocksdb::WriteBatchWithIndex::Rep", ptr %3, i32 0, i32 1
  %8 = getelementptr inbounds nuw %"struct.rocksdb::WriteBatchWithIndex::Rep", ptr %3, i32 0, i32 3
  call void @_ZN7rocksdb8SkipListIPNS_20WriteBatchIndexEntryERKNS_25WriteBatchEntryComparatorEEC2ES5_PNS_9AllocatorEii(ptr noundef nonnull align 8 dereferenceable(52) %6, ptr noundef nonnull align 8 dereferenceable(40) %7, ptr noundef %8, i32 noundef 12, i32 noundef 4)
  %9 = getelementptr inbounds nuw %"struct.rocksdb::WriteBatchWithIndex::Rep", ptr %3, i32 0, i32 5
  store i64 0, ptr %9, align 8, !tbaa !131
  %10 = getelementptr inbounds nuw %"struct.rocksdb::WriteBatchWithIndex::Rep", ptr %3, i32 0, i32 6
  store i64 1, ptr %10, align 16, !tbaa !133
  ret void
}