; Function Attrs: mustprogress uwtable
define void @_ZN7rocksdb19WriteBatchWithIndex3Rep10ClearIndexEv(ptr noundef nonnull align 16 dereferenceable(2632) %0) local_unnamed_addr #4 align 2 {
  %2 = getelementptr inbounds nuw i8, ptr %0, i64 208
  tail call void @_ZN7rocksdb5ArenaD1Ev(ptr noundef nonnull align 16 dereferenceable(2288) %2) #26
  tail call void @_ZN7rocksdb5ArenaC1EmPNS_12AllocTrackerEm(ptr noundef nonnull align 16 dereferenceable(2288) %2, i64 noundef 4096, ptr noundef null, i64 noundef 0)
  %3 = getelementptr inbounds nuw i8, ptr %0, i64 2496
  %4 = getelementptr inbounds nuw i8, ptr %0, i64 160
  store i16 12, ptr %3, align 16, !tbaa !156
  %5 = getelementptr inbounds nuw i8, ptr %0, i64 2498
  store i16 4, ptr %5, align 2, !tbaa !166
  %6 = getelementptr inbounds nuw i8, ptr %0, i64 2500
  store i32 536870912, ptr %6, align 4, !tbaa !157
  %7 = getelementptr inbounds nuw i8, ptr %0, i64 2504
  store ptr %4, ptr %7, align 8, !tbaa !167
  %8 = getelementptr inbounds nuw i8, ptr %0, i64 2512
  store ptr %2, ptr %8, align 16, !tbaa !162
  %9 = getelementptr inbounds nuw i8, ptr %0, i64 2520
  %10 = load ptr, ptr %2, align 16, !tbaa !88
  %11 = getelementptr inbounds nuw i8, ptr %10, i64 24
  %12 = load ptr, ptr %11, align 8
  %13 = tail call noundef ptr %12(ptr noundef nonnull align 8 dereferenceable(8) %2, i64 noundef 104, i64 noundef 0, ptr noundef null)
  store ptr null, ptr %13, align 8, !tbaa !118
  store ptr %13, ptr %9, align 8, !tbaa !116
  %14 = getelementptr inbounds nuw i8, ptr %0, i64 2528
  store i32 1, ptr %14, align 16, !tbaa !168
  %15 = getelementptr inbounds nuw i8, ptr %0, i64 2544
  store i32 1, ptr %15, align 16, !tbaa !153
  %16 = load ptr, ptr %8, align 16, !tbaa !162
  %17 = load i16, ptr %3, align 16, !tbaa !156
  %18 = zext i16 %17 to i64
  %19 = shl nuw nsw i64 %18, 3
  %20 = load ptr, ptr %16, align 8, !tbaa !88
  %21 = getelementptr inbounds nuw i8, ptr %20, i64 24
  %22 = load ptr, ptr %21, align 8
  %23 = tail call noundef ptr %22(ptr noundef nonnull align 8 dereferenceable(8) %16, i64 noundef %19, i64 noundef 0, ptr noundef null)
  %24 = getelementptr inbounds nuw i8, ptr %0, i64 2536
  store ptr %23, ptr %24, align 8, !tbaa !151
  %25 = load i16, ptr %3, align 16, !tbaa !156
  %.not.i = icmp eq i16 %25, 0
  br i1 %.not.i, label %_ZN7rocksdb8SkipListIPNS_20WriteBatchIndexEntryERKNS_25WriteBatchEntryComparatorEEC2ES5_PNS_9AllocatorEii.exit, label %.lr.ph.preheader.i

.lr.ph.preheader.i:                               ; preds = %1
  %.pre.i = load ptr, ptr %9, align 8, !tbaa !116
  br label %.lr.ph.i

.lr.ph.i:                                         ; preds = %.lr.ph.i, %.lr.ph.preheader.i
  %26 = phi ptr [ %.pre.i, %.lr.ph.preheader.i ], [ %29, %.lr.ph.i ]
  %indvars.iv.i = phi i64 [ 0, %.lr.ph.preheader.i ], [ %indvars.iv.next.i, %.lr.ph.i ]
  %27 = getelementptr inbounds nuw i8, ptr %26, i64 8
  %28 = getelementptr inbounds nuw [1 x %"struct.std::atomic.447"], ptr %27, i64 0, i64 %indvars.iv.i
  store atomic i64 0, ptr %28 release, align 8
  %29 = load ptr, ptr %9, align 8, !tbaa !116
  %30 = load ptr, ptr %24, align 8, !tbaa !151
  %31 = getelementptr inbounds nuw ptr, ptr %30, i64 %indvars.iv.i
  store ptr %29, ptr %31, align 8, !tbaa !152
  %indvars.iv.next.i = add nuw nsw i64 %indvars.iv.i, 1
  %32 = load i16, ptr %3, align 16, !tbaa !156
  %33 = zext i16 %32 to i64
  %34 = icmp samesign ult i64 %indvars.iv.next.i, %33
  br i1 %34, label %.lr.ph.i, label %_ZN7rocksdb8SkipListIPNS_20WriteBatchIndexEntryERKNS_25WriteBatchEntryComparatorEEC2ES5_PNS_9AllocatorEii.exit, !llvm.loop !169

_ZN7rocksdb8SkipListIPNS_20WriteBatchIndexEntryERKNS_25WriteBatchEntryComparatorEEC2ES5_PNS_9AllocatorEii.exit: ; preds = %.lr.ph.i, %1
  %35 = getelementptr inbounds nuw i8, ptr %0, i64 2552
  store i64 0, ptr %35, align 8, !tbaa !105
  %36 = getelementptr inbounds nuw i8, ptr %0, i64 2560
  store i64 1, ptr %36, align 16, !tbaa !108
  ret void
}